; Function Attrs: mustprogress uwtable
define noundef ptr @_ZNK6google8protobuf8internal12ExtensionSet49InternalSerializeMessageSetWithCachedSizesToArrayEPhPNS0_2io19EpsCopyOutputStreamE(ptr nocapture noundef nonnull readonly align 8 dereferenceable(24) %0, ptr noundef %1, ptr noundef %2) local_unnamed_addr #8 align 2 {
  %4 = getelementptr inbounds i8, ptr %0, i64 8
  %5 = load i16, ptr %4, align 8
  %6 = icmp ugt i16 %5, 256
  %7 = getelementptr inbounds i8, ptr %0, i64 16
  %8 = load ptr, ptr %7, align 8
  br i1 %6, label %9, label %19

9:                                                ; preds = %3
  %10 = getelementptr inbounds i8, ptr %8, i64 24
  %11 = load ptr, ptr %10, align 8
  %12 = getelementptr inbounds i8, ptr %8, i64 8
  %.not8.i.i = icmp eq ptr %11, %12
  br i1 %.not8.i.i, label %"_ZNK6google8protobuf8internal12ExtensionSet7ForEachIZNKS2_49InternalSerializeMessageSetWithCachedSizesToArrayEPhPNS0_2io19EpsCopyOutputStreamEE3$_0EET_S9_.exit", label %.lr.ph.i.i

.lr.ph.i.i:                                       ; preds = %9, %.lr.ph.i.i
  %13 = phi ptr [ %17, %.lr.ph.i.i ], [ %1, %9 ]
  %.sroa.0.09.i.i = phi ptr [ %18, %.lr.ph.i.i ], [ %11, %9 ]
  %14 = getelementptr inbounds i8, ptr %.sroa.0.09.i.i, i64 32
  %15 = load i32, ptr %14, align 8
  %16 = getelementptr inbounds i8, ptr %.sroa.0.09.i.i, i64 40
  %17 = tail call noundef ptr @_ZNK6google8protobuf8internal12ExtensionSet9Extension53InternalSerializeMessageSetItemWithCachedSizesToArrayEiPhPNS0_2io19EpsCopyOutputStreamE(ptr noundef nonnull readonly align 8 dereferenceable(24) %16, i32 noundef %15, ptr noundef %13, ptr noundef %2)
  %18 = tail call noundef ptr @_ZSt18_Rb_tree_incrementPSt18_Rb_tree_node_base(ptr noundef %.sroa.0.09.i.i) #27
  %.not.i.i = icmp eq ptr %18, %12
  br i1 %.not.i.i, label %"_ZNK6google8protobuf8internal12ExtensionSet7ForEachIZNKS2_49InternalSerializeMessageSetWithCachedSizesToArrayEPhPNS0_2io19EpsCopyOutputStreamEE3$_0EET_S9_.exit", label %.lr.ph.i.i, !llvm.loop !86

19:                                               ; preds = %3
  %20 = getelementptr inbounds i8, ptr %0, i64 10
  %21 = load i16, ptr %20, align 2
  %22 = zext i16 %21 to i64
  %23 = getelementptr inbounds %"struct.google::protobuf::internal::ExtensionSet::KeyValue", ptr %8, i64 %22
  %.not7.i.i = icmp eq i16 %21, 0
  br i1 %.not7.i.i, label %"_ZNK6google8protobuf8internal12ExtensionSet7ForEachIZNKS2_49InternalSerializeMessageSetWithCachedSizesToArrayEPhPNS0_2io19EpsCopyOutputStreamEE3$_0EET_S9_.exit", label %.lr.ph.i11.i

.lr.ph.i11.i:                                     ; preds = %19, %.lr.ph.i11.i
  %24 = phi ptr [ %27, %.lr.ph.i11.i ], [ %1, %19 ]
  %.08.i.i = phi ptr [ %28, %.lr.ph.i11.i ], [ %8, %19 ]
  %25 = load i32, ptr %.08.i.i, align 8
  %26 = getelementptr inbounds i8, ptr %.08.i.i, i64 8
  %27 = tail call noundef ptr @_ZNK6google8protobuf8internal12ExtensionSet9Extension53InternalSerializeMessageSetItemWithCachedSizesToArrayEiPhPNS0_2io19EpsCopyOutputStreamE(ptr noundef nonnull readonly align 8 dereferenceable(24) %26, i32 noundef %25, ptr noundef %24, ptr noundef %2)
  %28 = getelementptr inbounds i8, ptr %.08.i.i, i64 32
  %.not.i12.i = icmp eq ptr %28, %23
  br i1 %.not.i12.i, label %"_ZNK6google8protobuf8internal12ExtensionSet7ForEachIZNKS2_49InternalSerializeMessageSetWithCachedSizesToArrayEPhPNS0_2io19EpsCopyOutputStreamEE3$_0EET_S9_.exit", label %.lr.ph.i11.i, !llvm.loop !87

"_ZNK6google8protobuf8internal12ExtensionSet7ForEachIZNKS2_49InternalSerializeMessageSetWithCachedSizesToArrayEPhPNS0_2io19EpsCopyOutputStreamEE3$_0EET_S9_.exit": ; preds = %.lr.ph.i11.i, %.lr.ph.i.i, %9, %19
  %.0 = phi ptr [ %1, %9 ], [ %1, %19 ], [ %17, %.lr.ph.i.i ], [ %27, %.lr.ph.i11.i ]
  ret ptr %.0
}